Certificate:
    Data:
        Version: 3 (0x2)
        Serial Number: 737878736898 (0xabcd000002)
        Signature Algorithm: sha256WithRSAEncryption
        Issuer: C=US, ST=Nevada, L=Henderson, O=PracNet, OU=Practical TLS, CN=Root CA
        Validity
            Not Before: Dec 29 02:04:10 2021 GMT
            Not After : Dec 29 02:04:10 2022 GMT
        Subject: C=US, ST=Middle Earth, L=The Shire, O=Practical Networking, CN=*.bilbo.com
        Subject Public Key Info:
            Public Key Algorithm: rsaEncryption
                RSA Public-Key: (2048 bit)
                Modulus:
                    00:ae:4d:33:7a:4d:22:dd:c3:73:65:3d:0f:9e:57:
                    f3:f5:a4:4f:00:1e:d8:ce:68:91:f7:eb:0c:a6:d5:
                    76:aa:5e:cb:35:9d:38:c4:98:f0:bd:8a:27:fc:27:
                    71:bf:f7:3a:17:99:25:bc:95:74:79:ea:6b:0b:7c:
                    cd:47:b1:92:1f:c9:81:64:a8:ae:0c:a5:94:d5:f0:
                    41:5c:fe:4d:74:0d:fc:59:a0:53:8b:f3:1d:df:ab:
                    51:06:77:ae:74:91:1e:c4:dd:e6:c4:c5:e7:ed:08:
                    7f:29:e4:a3:c2:4a:80:8f:75:5a:58:99:f1:b7:54:
                    1a:fa:df:69:a0:1b:14:43:25:b7:08:6c:26:da:03:
                    8f:e8:eb:a6:7f:7a:08:af:f4:d3:5d:68:76:30:fa:
                    72:f1:f2:c8:9f:2c:bb:8f:ec:b9:82:a4:cd:22:62:
                    62:61:92:98:60:0b:f9:8b:f5:ae:3e:4b:58:e9:75:
                    7d:1e:6f:4a:96:ff:7f:a2:fc:6a:d5:c1:d2:32:f1:
                    14:e6:13:5c:35:bb:33:10:81:85:15:05:fb:dc:be:
                    5c:b5:46:a9:bf:58:c9:70:24:9e:ae:67:d5:ee:b4:
                    3c:8f:11:5f:74:34:ce:ee:75:60:2a:30:1b:75:34:
                    f4:85:de:17:a7:c4:86:71:72:df:ff:1a:05:5a:d2:
                    47:09
                Exponent: 65537 (0x10001)
        X509v3 extensions:
            X509v3 Basic Constraints: 
                CA:FALSE
            X509v3 Subject Key Identifier: 
                9C:C0:2A:35:E0:9E:DD:2D:1E:A3:55:B4:11:DE:FB:EB:A3:EE:DC:EF
            X509v3 Authority Key Identifier: 
                keyid:0D:8E:E0:8B:80:CD:85:2E:9F:EB:C3:D8:A4:9B:0C:48:B0:EC:68:18

            X509v3 Key Usage: 
                Digital Signature, Key Encipherment
            X509v3 Extended Key Usage: 
                TLS Web Server Authentication
            X509v3 Subject Alternative Name: 
                DNS:bilbo.com, DNS:en.admin.bilbo.com, DNS:fr.admin.bilbo.com, DNS:es.admin.bilbo.com, DNS:bilbobaggins.com, DNS:*.bilbobaggins.com, DNS:bagend.com, DNS:*.bagend.com
    Signature Algorithm: sha256WithRSAEncryption
         cb:41:9b:1c:51:b8:92:a0:a6:32:50:9c:2f:4d:43:4c:12:8d:
         cc:a8:8d:9e:8f:55:8c:06:35:78:96:b5:3e:ae:95:ed:c5:65:
         64:7f:1f:74:74:4f:c4:28:91:fd:91:e9:e3:ec:8b:cd:08:d4:
         86:74:f3:48:3b:84:61:8f:d5:c9:35:95:3c:73:08:da:55:6c:
         db:41:ba:a3:82:19:9a:5a:9d:7a:9c:74:ab:79:64:f0:93:cc:
         dc:d1:49:e7:fe:30:0d:5e:ce:00:b3:62:bb:e5:e7:c5:4c:f1:
         96:96:7a:5f:f9:61:02:dc:de:61:a0:f1:d9:9b:5c:25:2f:21:
         07:5f:e4:1f:2a:32:22:68:8c:29:c9:34:e2:e2:00:e3:c2:4b:
         49:7e:88:fd:83:d5:9f:21:53:3c:9c:23:6b:d8:7d:4e:dd:bd:
         e8:18:f3:4b:40:84:ca:95:5c:bf:bc:b3:7d:c6:55:75:65:37:
         a8:e3:c0:16:54:bc:13:05:06:df:a0:36:fb:a0:66:5d:4b:01:
         d8:52:1a:c4:e3:36:45:69:e5:cc:55:82:ec:4a:14:ac:ef:a4:
         6b:e2:a1:b7:a1:05:8f:1c:9b:fe:d8:62:14:6d:da:cb:39:34:
         6e:2c:81:4c:35:28:68:46:81:d4:60:a6:e7:73:85:89:0c:b1:
         af:8b:ec:04:50:f8:99:c3:7e:5a:cd:8d:15:3e:3b:4b:e9:9c:
         be:a3:15:a9:42:59:20:bc:3b:df:20:50:e4:b9:bd:97:55:2a:
         87:cb:69:a3:62:ba:35:1f:28:25:69:21:b3:3e:e3:cb:49:1b:
         6c:98:2a:cb:73:b5:79:47:49:20:2e:db:e2:0b:f1:4d:8e:64:
         b3:9c:18:d1:40:82:25:4b:dc:8b:24:0b:86:7f:b9:8c:b8:05:
         01:2b:c5:ea:0f:75:5a:6b:95:c4:7d:07:20:3f:b9:86:bb:48:
         a3:c3:f5:f7:51:66:b9:88:2c:d3:60:54:59:81:b4:00:d1:6c:
         ce:38:ba:67:89:bc:ba:67:2c:c8:9e:35:73:40:4f:16:c5:3a:
         6f:e2:3e:c9:35:ad:e1:21:ff:32:bb:be:a9:91:89:1e:c5:27:
         2f:b9:3b:e7:3d:62:b6:67:c5:bf:59:1f:95:e6:3b:d7:f8:69:
         ae:9e:ec:77:80:58:aa:db:c3:10:ec:94:19:40:51:a9:e8:7a:
         cf:05:5e:e1:a9:a1:4b:30:56:be:b1:31:bf:f1:d1:c2:e4:ad:
         dd:c6:0e:3d:82:66:77:9e:36:9b:0c:46:d1:05:8c:4f:ba:ea:
         3b:99:75:7d:56:dd:58:c8:a3:32:8f:fb:62:f3:85:58:24:b9:
         40:de:83:1c:53:90:96:cf
-----BEGIN CERTIFICATE-----
MIIFYzCCA0ugAwIBAgIGAKvNAAACMA0GCSqGSIb3DQEBCwUAMG4xCzAJBgNVBAYT
AlVTMQ8wDQYDVQQIDAZOZXZhZGExEjAQBgNVBAcMCUhlbmRlcnNvbjEQMA4GA1UE
CgwHUHJhY05ldDEWMBQGA1UECwwNUHJhY3RpY2FsIFRMUzEQMA4GA1UEAwwHUm9v
dCBDQTAeFw0yMTEyMjkwMjA0MTBaFw0yMjEyMjkwMjA0MTBaMG0xCzAJBgNVBAYT
AlVTMRUwEwYDVQQIDAxNaWRkbGUgRWFydGgxEjAQBgNVBAcMCVRoZSBTaGlyZTEd
MBsGA1UECgwUUHJhY3RpY2FsIE5ldHdvcmtpbmcxFDASBgNVBAMMCyouYmlsYm8u
Y29tMIIBIjANBgkqhkiG9w0BAQEFAAOCAQ8AMIIBCgKCAQEArk0zek0i3cNzZT0P
nlfz9aRPAB7YzmiR9+sMptV2ql7LNZ04xJjwvYon/Cdxv/c6F5klvJV0eeprC3zN
R7GSH8mBZKiuDKWU1fBBXP5NdA38WaBTi/Md36tRBneudJEexN3mxMXn7Qh/KeSj
wkqAj3VaWJnxt1Qa+t9poBsUQyW3CGwm2gOP6Oumf3oIr/TTXWh2MPpy8fLInyy7
j+y5gqTNImJiYZKYYAv5i/WuPktY6XV9Hm9Klv9/ovxq1cHSMvEU5hNcNbszEIGF
FQX73L5ctUapv1jJcCSermfV7rQ8jxFfdDTO7nVgKjAbdTT0hd4Xp8SGcXLf/xoF
WtJHCQIDAQABo4IBBjCCAQIwCQYDVR0TBAIwADAdBgNVHQ4EFgQUnMAqNeCe3S0e
o1W0Ed7766Pu3O8wHwYDVR0jBBgwFoAUDY7gi4DNhS6f68PYpJsMSLDsaBgwCwYD
VR0PBAQDAgWgMBMGA1UdJQQMMAoGCCsGAQUFBwMBMIGSBgNVHREEgYowgYeCCWJp
bGJvLmNvbYISZW4uYWRtaW4uYmlsYm8uY29tghJmci5hZG1pbi5iaWxiby5jb22C
EmVzLmFkbWluLmJpbGJvLmNvbYIQYmlsYm9iYWdnaW5zLmNvbYISKi5iaWxib2Jh
Z2dpbnMuY29tggpiYWdlbmQuY29tggwqLmJhZ2VuZC5jb20wDQYJKoZIhvcNAQEL
BQADggIBAMtBmxxRuJKgpjJQnC9NQ0wSjcyojZ6PVYwGNXiWtT6ule3FZWR/H3R0
T8Qokf2R6ePsi80I1IZ080g7hGGP1ck1lTxzCNpVbNtBuqOCGZpanXqcdKt5ZPCT
zNzRSef+MA1ezgCzYrvl58VM8ZaWel/5YQLc3mGg8dmbXCUvIQdf5B8qMiJojCnJ
NOLiAOPCS0l+iP2D1Z8hUzycI2vYfU7dvegY80tAhMqVXL+8s33GVXVlN6jjwBZU
vBMFBt+gNvugZl1LAdhSGsTjNkVp5cxVguxKFKzvpGviobehBY8cm/7YYhRt2ss5
NG4sgUw1KGhGgdRgpudzhYkMsa+L7ARQ+JnDflrNjRU+O0vpnL6jFalCWSC8O98g
UOS5vZdVKofLaaNiujUfKCVpIbM+48tJG2yYKstztXlHSSAu2+IL8U2OZLOcGNFA
giVL3IskC4Z/uYy4BQErxeoPdVprlcR9ByA/uYa7SKPD9fdRZrmILNNgVFmBtADR
bM44umeJvLpnLMieNXNATxbFOm/iPsk1reEh/zK7vqmRiR7FJy+5O+c9YrZnxb9Z
H5XmO9f4aa6e7HeAWKrbwxDslBlAUanoes8FXuGpoUswVr6xMb/x0cLkrd3GDj2C
ZneeNpsMRtEFjE+66juZdX1W3VjIozKP+2LzhVgkuUDegxxTkJbP
-----END CERTIFICATE-----
